target datalayout = "e-m:e-p270:32:32-p271:32:32-p272:64:64-i64:64-i128:128-f80:128-n8:16:32:64-S128"
target triple = "x86_64-pc-linux-gnu"

%struct._zval_struct = type { %union._zend_value, %union.anon, %union.anon.2 }
%union._zend_value = type { i64 }
%union.anon = type { i32 }
%union.anon.2 = type { i32 }
%struct._zend_objects_store = type { ptr, i32, i32, i32 }
%struct._zend_refcounted_h = type { i32, %union.anon.3 }
%union.anon.3 = type { i32 }
%struct._zend_object = type { %struct._zend_refcounted_h, i32, ptr, ptr, ptr, [1 x %struct._zval_struct] }
%struct._zend_object_handlers = type { i32, ptr, ptr, ptr, ptr, ptr, ptr, ptr, ptr, ptr, ptr, ptr, ptr, ptr, ptr, ptr, ptr, ptr, ptr, ptr, ptr, ptr, ptr, ptr, ptr }

; Function Attrs: nounwind uwtable
define void @zend_objects_store_free_object_storage(ptr noundef %0, i1 noundef zeroext %1) #0 {
  %3 = alloca ptr, align 8
  %4 = alloca ptr, align 8
  %5 = alloca i32, align 4
  %6 = alloca i32, align 4
  %7 = alloca ptr, align 8
  %8 = alloca i8, align 1
  %9 = alloca ptr, align 8
  %10 = alloca ptr, align 8
  %11 = alloca ptr, align 8
  store ptr %0, ptr %7, align 8
  %12 = zext i1 %1 to i8
  store i8 %12, ptr %8, align 1
  %13 = load ptr, ptr %7, align 8
  %14 = getelementptr inbounds %struct._zend_objects_store, ptr %13, i32 0, i32 1
  %15 = load i32, ptr %14, align 8
  %16 = icmp ule i32 %15, 1
  br i1 %16, label %17, label %18

17:                                               ; preds = %2
  br label %131

18:                                               ; preds = %2
  %19 = load ptr, ptr %7, align 8
  %20 = getelementptr inbounds %struct._zend_objects_store, ptr %19, i32 0, i32 0
  %21 = load ptr, ptr %20, align 8
  %22 = getelementptr inbounds ptr, ptr %21, i64 1
  store ptr %22, ptr %10, align 8
  %23 = load ptr, ptr %7, align 8
  %24 = getelementptr inbounds %struct._zend_objects_store, ptr %23, i32 0, i32 0
  %25 = load ptr, ptr %24, align 8
  %26 = load ptr, ptr %7, align 8
  %27 = getelementptr inbounds %struct._zend_objects_store, ptr %26, i32 0, i32 1
  %28 = load i32, ptr %27, align 8
  %29 = zext i32 %28 to i64
  %30 = getelementptr inbounds ptr, ptr %25, i64 %29
  store ptr %30, ptr %9, align 8
  %31 = load i8, ptr %8, align 1
  %32 = trunc i8 %31 to i1
  br i1 %32, label %33, label %86

33:                                               ; preds = %18
  br label %34

34:                                               ; preds = %81, %33
  %35 = load ptr, ptr %9, align 8
  %36 = getelementptr inbounds ptr, ptr %35, i32 -1
  store ptr %36, ptr %9, align 8
  %37 = load ptr, ptr %9, align 8
  %38 = load ptr, ptr %37, align 8
  store ptr %38, ptr %11, align 8
  %39 = load ptr, ptr %11, align 8
  %40 = ptrtoint ptr %39 to i64
  %41 = and i64 %40, 1
  %42 = icmp ne i64 %41, 0
  br i1 %42, label %80, label %43

43:                                               ; preds = %34
  %44 = load ptr, ptr %11, align 8
  %45 = getelementptr inbounds %struct._zend_object, ptr %44, i32 0, i32 0
  %46 = getelementptr inbounds %struct._zend_refcounted_h, ptr %45, i32 0, i32 1
  %47 = load i32, ptr %46, align 4
  store i32 %47, ptr %5, align 4
  %48 = load i32, ptr %5, align 4
  %49 = and i32 %48, 1008
  %50 = and i32 %49, 512
  %51 = icmp ne i32 %50, 0
  br i1 %51, label %79, label %52

52:                                               ; preds = %43
  br label %53

53:                                               ; preds = %52
  %54 = load ptr, ptr %11, align 8
  %55 = getelementptr inbounds %struct._zend_object, ptr %54, i32 0, i32 0
  %56 = getelementptr inbounds %struct._zend_refcounted_h, ptr %55, i32 0, i32 1
  %57 = load i32, ptr %56, align 4
  %58 = or i32 %57, 512
  store i32 %58, ptr %56, align 4
  br label %59

59:                                               ; preds = %53
  %60 = load ptr, ptr %11, align 8
  %61 = getelementptr inbounds %struct._zend_object, ptr %60, i32 0, i32 3
  %62 = load ptr, ptr %61, align 8
  %63 = getelementptr inbounds %struct._zend_object_handlers, ptr %62, i32 0, i32 1
  %64 = load ptr, ptr %63, align 8
  %65 = icmp ne ptr %64, @zend_object_std_dtor
  br i1 %65, label %66, label %78

66:                                               ; preds = %59
  %67 = load ptr, ptr %11, align 8
  %68 = getelementptr inbounds %struct._zend_object, ptr %67, i32 0, i32 0
  store ptr %68, ptr %3, align 8
  %69 = load ptr, ptr %3, align 8
  %70 = load i32, ptr %69, align 4
  %71 = add i32 %70, 1
  store i32 %71, ptr %69, align 4
  %72 = load ptr, ptr %11, align 8
  %73 = getelementptr inbounds %struct._zend_object, ptr %72, i32 0, i32 3
  %74 = load ptr, ptr %73, align 8
  %75 = getelementptr inbounds %struct._zend_object_handlers, ptr %74, i32 0, i32 1
  %76 = load ptr, ptr %75, align 8
  %77 = load ptr, ptr %11, align 8
  call void %76(ptr noundef %77)
  br label %78

78:                                               ; preds = %66, %59
  br label %79

79:                                               ; preds = %78, %43
  br label %80

80:                                               ; preds = %79, %34
  br label %81

81:                                               ; preds = %80
  %82 = load ptr, ptr %9, align 8
  %83 = load ptr, ptr %10, align 8
  %84 = icmp ne ptr %82, %83
  br i1 %84, label %34, label %85

85:                                               ; preds = %81
  br label %131

86:                                               ; preds = %18
  br label %87

87:                                               ; preds = %126, %86
  %88 = load ptr, ptr %9, align 8
  %89 = getelementptr inbounds ptr, ptr %88, i32 -1
  store ptr %89, ptr %9, align 8
  %90 = load ptr, ptr %9, align 8
  %91 = load ptr, ptr %90, align 8
  store ptr %91, ptr %11, align 8
  %92 = load ptr, ptr %11, align 8
  %93 = ptrtoint ptr %92 to i64
  %94 = and i64 %93, 1
  %95 = icmp ne i64 %94, 0
  br i1 %95, label %125, label %96

96:                                               ; preds = %87
  %97 = load ptr, ptr %11, align 8
  %98 = getelementptr inbounds %struct._zend_object, ptr %97, i32 0, i32 0
  %99 = getelementptr inbounds %struct._zend_refcounted_h, ptr %98, i32 0, i32 1
  %100 = load i32, ptr %99, align 4
  store i32 %100, ptr %6, align 4
  %101 = load i32, ptr %6, align 4
  %102 = and i32 %101, 1008
  %103 = and i32 %102, 512
  %104 = icmp ne i32 %103, 0
  br i1 %104, label %124, label %105

105:                                              ; preds = %96
  br label %106

106:                                              ; preds = %105
  %107 = load ptr, ptr %11, align 8
  %108 = getelementptr inbounds %struct._zend_object, ptr %107, i32 0, i32 0
  %109 = getelementptr inbounds %struct._zend_refcounted_h, ptr %108, i32 0, i32 1
  %110 = load i32, ptr %109, align 4
  %111 = or i32 %110, 512
  store i32 %111, ptr %109, align 4
  br label %112

112:                                              ; preds = %106
  %113 = load ptr, ptr %11, align 8
  %114 = getelementptr inbounds %struct._zend_object, ptr %113, i32 0, i32 0
  store ptr %114, ptr %4, align 8
  %115 = load ptr, ptr %4, align 8
  %116 = load i32, ptr %115, align 4
  %117 = add i32 %116, 1
  store i32 %117, ptr %115, align 4
  %118 = load ptr, ptr %11, align 8
  %119 = getelementptr inbounds %struct._zend_object, ptr %118, i32 0, i32 3
  %120 = load ptr, ptr %119, align 8
  %121 = getelementptr inbounds %struct._zend_object_handlers, ptr %120, i32 0, i32 1
  %122 = load ptr, ptr %121, align 8
  %123 = load ptr, ptr %11, align 8
  call void %122(ptr noundef %123)
  br label %124

124:                                              ; preds = %112, %96
  br label %125

125:                                              ; preds = %124, %87
  br label %126

126:                                              ; preds = %125
  %127 = load ptr, ptr %9, align 8
  %128 = load ptr, ptr %10, align 8
  %129 = icmp ne ptr %127, %128
  br i1 %129, label %87, label %130

130:                                              ; preds = %126
  br label %131

131:                                              ; preds = %130, %85, %17
  ret void
}