; Function Attrs: nounwind uwtable
define void @zend_objects_store_free_object_storage(ptr nocapture noundef readonly %0, i1 noundef zeroext %1) local_unnamed_addr #0 {
  %3 = getelementptr inbounds i8, ptr %0, i64 8
  %4 = load i32, ptr %3, align 8
  %5 = icmp ult i32 %4, 2
  br i1 %5, label %.loopexit, label %6

6:                                                ; preds = %2
  %7 = load ptr, ptr %0, align 8
  %8 = zext i32 %4 to i64
  %.idx = shl nuw nsw i64 %8, 3
  br i1 %1, label %.preheader, label %.preheader40

.preheader:                                       ; preds = %6, %26
  %.0.idx = phi i64 [ %.0.add, %26 ], [ %.idx, %6 ]
  %.0.add = add nsw i64 %.0.idx, -8
  %.ptr39 = getelementptr inbounds i8, ptr %7, i64 %.0.add
  %9 = load ptr, ptr %.ptr39, align 8
  %10 = ptrtoint ptr %9 to i64
  %11 = and i64 %10, 1
  %.not35 = icmp eq i64 %11, 0
  br i1 %.not35, label %12, label %26

12:                                               ; preds = %.preheader
  %13 = getelementptr inbounds i8, ptr %9, i64 4
  %14 = load i32, ptr %13, align 4
  %15 = and i32 %14, 512
  %.not36 = icmp eq i32 %15, 0
  br i1 %.not36, label %16, label %26

16:                                               ; preds = %12
  %17 = or disjoint i32 %14, 512
  store i32 %17, ptr %13, align 4
  %18 = getelementptr inbounds i8, ptr %9, i64 24
  %19 = load ptr, ptr %18, align 8
  %20 = getelementptr inbounds i8, ptr %19, i64 8
  %21 = load ptr, ptr %20, align 8
  %.not37 = icmp eq ptr %21, @zend_object_std_dtor
  br i1 %.not37, label %26, label %22

22:                                               ; preds = %16
  %23 = load i32, ptr %9, align 4
  %24 = add i32 %23, 1
  store i32 %24, ptr %9, align 4
  %25 = load ptr, ptr %20, align 8
  tail call void %25(ptr noundef nonnull %9) #7
  br label %26

26:                                               ; preds = %.preheader, %16, %22, %12
  %.not38 = icmp eq i64 %.0.add, 8
  br i1 %.not38, label %.loopexit, label %.preheader

.preheader40:                                     ; preds = %6, %42
  %.1.idx = phi i64 [ %.1.add, %42 ], [ %.idx, %6 ]
  %.1.add = add nsw i64 %.1.idx, -8
  %.ptr = getelementptr inbounds i8, ptr %7, i64 %.1.add
  %27 = load ptr, ptr %.ptr, align 8
  %28 = ptrtoint ptr %27 to i64
  %29 = and i64 %28, 1
  %.not = icmp eq i64 %29, 0
  br i1 %.not, label %30, label %42

30:                                               ; preds = %.preheader40
  %31 = getelementptr inbounds i8, ptr %27, i64 4
  %32 = load i32, ptr %31, align 4
  %33 = and i32 %32, 512
  %.not32 = icmp eq i32 %33, 0
  br i1 %.not32, label %34, label %42

34:                                               ; preds = %30
  %35 = or disjoint i32 %32, 512
  store i32 %35, ptr %31, align 4
  %36 = load i32, ptr %27, align 4
  %37 = add i32 %36, 1
  store i32 %37, ptr %27, align 4
  %38 = getelementptr inbounds i8, ptr %27, i64 24
  %39 = load ptr, ptr %38, align 8
  %40 = getelementptr inbounds i8, ptr %39, i64 8
  %41 = load ptr, ptr %40, align 8
  tail call void %41(ptr noundef nonnull %27) #7
  br label %42

42:                                               ; preds = %.preheader40, %34, %30
  %.not33 = icmp eq i64 %.1.add, 8
  br i1 %.not33, label %.loopexit, label %.preheader40

.loopexit:                                        ; preds = %42, %26, %2
  ret void
}